target datalayout = "e-m:e-p270:32:32-p271:32:32-p272:64:64-i64:64-i128:128-f80:128-n8:16:32:64-S128"
target triple = "x86_64-unknown-linux-gnu"

; Function Attrs: mustprogress nounwind uwtable
define noundef signext i8 @_ZN6icu_7519CollationRuleParser12isSyntaxCharEi(i32 noundef %c) #0 align 2 {
entry:
  %c.addr = alloca i32, align 4
  store i32 %c, ptr %c.addr, align 4
  %0 = load i32, ptr %c.addr, align 4
  %cmp = icmp sle i32 33, %0
  br i1 %cmp, label %land.lhs.true, label %land.end

land.lhs.true:                                    ; preds = %entry
  %1 = load i32, ptr %c.addr, align 4
  %cmp1 = icmp sle i32 %1, 126
  br i1 %cmp1, label %land.rhs, label %land.end

land.rhs:                                         ; preds = %land.lhs.true
  %2 = load i32, ptr %c.addr, align 4
  %cmp2 = icmp sle i32 %2, 47
  br i1 %cmp2, label %lor.end, label %lor.lhs.false

lor.lhs.false:                                    ; preds = %land.rhs
  %3 = load i32, ptr %c.addr, align 4
  %cmp3 = icmp sle i32 58, %3
  br i1 %cmp3, label %land.lhs.true4, label %lor.lhs.false6

land.lhs.true4:                                   ; preds = %lor.lhs.false
  %4 = load i32, ptr %c.addr, align 4
  %cmp5 = icmp sle i32 %4, 64
  br i1 %cmp5, label %lor.end, label %lor.lhs.false6

lor.lhs.false6:                                   ; preds = %land.lhs.true4, %lor.lhs.false
  %5 = load i32, ptr %c.addr, align 4
  %cmp7 = icmp sle i32 91, %5
  br i1 %cmp7, label %land.lhs.true8, label %lor.rhs

land.lhs.true8:                                   ; preds = %lor.lhs.false6
  %6 = load i32, ptr %c.addr, align 4
  %cmp9 = icmp sle i32 %6, 96
  br i1 %cmp9, label %lor.end, label %lor.rhs

lor.rhs:                                          ; preds = %land.lhs.true8, %lor.lhs.false6
  %7 = load i32, ptr %c.addr, align 4
  %cmp10 = icmp sle i32 123, %7
  br label %lor.end

lor.end:                                          ; preds = %lor.rhs, %land.lhs.true8, %land.lhs.true4, %land.rhs
  %8 = phi i1 [ true, %land.lhs.true8 ], [ true, %land.lhs.true4 ], [ true, %land.rhs ], [ %cmp10, %lor.rhs ]
  br label %land.end

land.end:                                         ; preds = %lor.end, %land.lhs.true, %entry
  %9 = phi i1 [ false, %land.lhs.true ], [ false, %entry ], [ %8, %lor.end ]
  %conv = zext i1 %9 to i8
  ret i8 %conv
}