; Function Attrs: mustprogress nofree norecurse nosync nounwind willreturn memory(none) uwtable
define noundef signext i8 @_ZN6icu_7519CollationRuleParser12isSyntaxCharEi(i32 noundef %c) local_unnamed_addr #9 align 2 {
entry:
  %0 = add i32 %c, -33
  %or.cond = icmp ult i32 %0, 94
  br i1 %or.cond, label %land.rhs, label %land.end

land.rhs:                                         ; preds = %entry
  %cmp2 = icmp ult i32 %c, 48
  br i1 %cmp2, label %land.end, label %switch.early.test

switch.early.test:                                ; preds = %land.rhs
  switch i32 %c, label %lor.rhs [
    i32 96, label %land.end
    i32 95, label %land.end
    i32 94, label %land.end
    i32 93, label %land.end
    i32 92, label %land.end
    i32 91, label %land.end
    i32 64, label %land.end
    i32 63, label %land.end
    i32 62, label %land.end
    i32 61, label %land.end
    i32 60, label %land.end
    i32 59, label %land.end
    i32 58, label %land.end
  ]

lor.rhs:                                          ; preds = %switch.early.test
  %cmp10 = icmp ugt i32 %c, 122
  %1 = zext i1 %cmp10 to i8
  br label %land.end

land.end:                                         ; preds = %switch.early.test, %switch.early.test, %switch.early.test, %switch.early.test, %switch.early.test, %switch.early.test, %switch.early.test, %switch.early.test, %switch.early.test, %switch.early.test, %switch.early.test, %switch.early.test, %switch.early.test, %land.rhs, %lor.rhs, %entry
  %conv = phi i8 [ 0, %entry ], [ 1, %switch.early.test ], [ %1, %lor.rhs ], [ 1, %land.rhs ], [ 1, %switch.early.test ], [ 1, %switch.early.test ], [ 1, %switch.early.test ], [ 1, %switch.early.test ], [ 1, %switch.early.test ], [ 1, %switch.early.test ], [ 1, %switch.early.test ], [ 1, %switch.early.test ], [ 1, %switch.early.test ], [ 1, %switch.early.test ], [ 1, %switch.early.test ], [ 1, %switch.early.test ]
  ret i8 %conv
}